; Function Attrs: mustprogress uwtable
define dso_local noundef range(i32 -2147483648, 2147483647) i32 @_ZN16b3GpuNarrowPhase19registerSphereShapeEf(ptr noundef nonnull readonly align 8 captures(none) dereferenceable(56) %0, float noundef %1) local_unnamed_addr #12 align 2 {
  %3 = alloca %struct.b3Collidable, align 4
  %4 = alloca %struct.b3SapAabb, align 16
  %5 = getelementptr inbounds nuw i8, ptr %0, i64 8
  %6 = load ptr, ptr %5, align 8, !tbaa !7
  %7 = getelementptr inbounds nuw i8, ptr %6, i64 380
  %8 = load i32, ptr %7, align 4, !tbaa !121
  %9 = getelementptr inbounds nuw i8, ptr %6, i64 620
  %10 = load i32, ptr %9, align 4, !tbaa !334
  %11 = icmp slt i32 %8, %10
  br i1 %11, label %_ZN16b3GpuNarrowPhase18allocateCollidableEv.exit, label %_ZN16b3GpuNarrowPhase18allocateCollidableEv.exit.thread

_ZN16b3GpuNarrowPhase18allocateCollidableEv.exit.thread: ; preds = %2
  tail call void (ptr, ...) @b3OutputErrorMessageVarArgsInternal(ptr noundef nonnull @.str, ptr noundef nonnull @.str.1, i32 noundef 154)
  %12 = load ptr, ptr %5, align 8, !tbaa !7
  %13 = getelementptr inbounds nuw i8, ptr %12, i64 620
  %14 = load i32, ptr %13, align 4, !tbaa !334
  tail call void (ptr, ...) @b3OutputErrorMessageVarArgsInternal(ptr noundef nonnull @.str.2, i32 noundef %14)
  br label %42

_ZN16b3GpuNarrowPhase18allocateCollidableEv.exit: ; preds = %2
  %15 = getelementptr inbounds nuw i8, ptr %6, i64 376
  call void @llvm.lifetime.start.p0(i64 16, ptr nonnull %3) #18
  call void @llvm.memset.p0.i64(ptr noundef nonnull align 4 dereferenceable(16) %3, i8 0, i64 16, i1 false)
  %16 = call noundef nonnull align 4 dereferenceable(16) ptr @_ZN20b3AlignedObjectArrayI12b3CollidableE6expandERKS0_(ptr noundef nonnull align 8 dereferenceable(25) %15, ptr noundef nonnull align 4 dereferenceable(16) %3)
  call void @llvm.lifetime.end.p0(i64 16, ptr nonnull %3) #18
  %17 = icmp slt i32 %8, 0
  br i1 %17, label %42, label %18

18:                                               ; preds = %_ZN16b3GpuNarrowPhase18allocateCollidableEv.exit
  %19 = load ptr, ptr %5, align 8, !tbaa !7
  %20 = getelementptr inbounds nuw i8, ptr %19, i64 392
  %21 = load ptr, ptr %20, align 8, !tbaa !122
  %22 = zext nneg i32 %8 to i64
  %23 = getelementptr inbounds nuw %struct.b3Collidable, ptr %21, i64 %22
  %24 = getelementptr inbounds nuw i8, ptr %23, i64 8
  store i32 7, ptr %24, align 4, !tbaa !335
  %25 = getelementptr inbounds nuw i8, ptr %23, i64 12
  store i32 0, ptr %25, align 4, !tbaa !124
  %26 = getelementptr inbounds nuw i8, ptr %23, i64 4
  store float %1, ptr %26, align 4, !tbaa !124
  call void @llvm.lifetime.start.p0(i64 32, ptr nonnull %4) #18
  %27 = fneg float %1
  store float %27, ptr %4, align 16, !tbaa !124
  %28 = getelementptr inbounds nuw i8, ptr %4, i64 4
  store float %27, ptr %28, align 4, !tbaa !124
  %29 = getelementptr inbounds nuw i8, ptr %4, i64 8
  store float %27, ptr %29, align 8, !tbaa !124
  %30 = getelementptr inbounds nuw i8, ptr %4, i64 12
  store i32 0, ptr %30, align 4, !tbaa !124
  %31 = getelementptr inbounds nuw i8, ptr %4, i64 16
  store float %1, ptr %31, align 16, !tbaa !124
  %32 = getelementptr inbounds nuw i8, ptr %4, i64 20
  store float %1, ptr %32, align 4, !tbaa !124
  %33 = getelementptr inbounds nuw i8, ptr %4, i64 24
  store float %1, ptr %33, align 8, !tbaa !124
  %34 = getelementptr inbounds nuw i8, ptr %4, i64 28
  store i32 0, ptr %34, align 4, !tbaa !124
  %35 = load ptr, ptr %5, align 8, !tbaa !7
  %36 = getelementptr inbounds nuw i8, ptr %35, i64 424
  %37 = load ptr, ptr %36, align 8, !tbaa !134
  call void @_ZN20b3AlignedObjectArrayI9b3SapAabbE9push_backERKS0_(ptr noundef nonnull align 8 dereferenceable(25) %37, ptr noundef nonnull align 16 dereferenceable(32) %4)
  %38 = load ptr, ptr @__clewFinish, align 8, !tbaa !218
  %39 = getelementptr inbounds nuw i8, ptr %0, i64 48
  %40 = load ptr, ptr %39, align 8, !tbaa !20
  %41 = call i32 %38(ptr noundef %40)
  call void @llvm.lifetime.end.p0(i64 32, ptr nonnull %4) #18
  br label %42

42:                                               ; preds = %_ZN16b3GpuNarrowPhase18allocateCollidableEv.exit.thread, %_ZN16b3GpuNarrowPhase18allocateCollidableEv.exit, %18
  %.0.i24 = phi i32 [ -1, %_ZN16b3GpuNarrowPhase18allocateCollidableEv.exit.thread ], [ %8, %_ZN16b3GpuNarrowPhase18allocateCollidableEv.exit ], [ %8, %18 ]
  ret i32 %.0.i24
}